ccopy_reg
_reconstructor
p0
(csklearn.ensemble.weight_boosting
AdaBoostClassifier
p1
c__builtin__
object
p2
Ntp3
Rp4
(dp5
S'base_estimator'
p6
g0
(csklearn.tree.tree
DecisionTreeClassifier
p7
g2
Ntp8
Rp9
(dp10
S'presort'
p11
I00
sS'splitter'
p12
S'best'
p13
sS'tree_'
p14
NsS'n_features_'
p15
NsS'n_outputs_'
p16
NsS'n_classes_'
p17
NsS'min_impurity_split'
p18
F1e-07
sS'classes_'
p19
NsS'max_features_'
p20
NsS'min_samples_leaf'
p21
I2
sS'min_samples_split'
p22
I2
sS'random_state'
p23
NsS'criterion'
p24
S'gini'
p25
sS'min_weight_fraction_leaf'
p26
F0.0
sS'max_leaf_nodes'
p27
NsS'max_features'
p28
NsS'_sklearn_version'
p29
S'0.18'
p30
sS'max_depth'
p31
I1
sS'class_weight'
p32
S'balanced'
p33
sbsS'estimators_'
p34
(lp35
sS'algorithm'
p36
S'SAMME.R'
p37
sS'learning_rate'
p38
F0.8
sS'n_estimators'
p39
I50
sg23
Nsg29
g30
sS'estimator_params'
p40
(tsb.